; Function Attrs: null_pointer_is_valid sspstrong uwtable
define internal zeroext i1 @dissect_mswsp_smb_heur(ptr noundef %0, ptr noundef %1, ptr noundef %2, ptr noundef readonly captures(none) %3) #0 {
  %5 = getelementptr inbounds nuw i8, ptr %3, i64 25
  %6 = load i8, ptr %5, align 1, !range !8, !noundef !9
  %7 = trunc nuw i8 %6 to i1
  %8 = getelementptr inbounds nuw i8, ptr %3, i64 40
  %9 = load ptr, ptr %8, align 8
  %.not.i.i = icmp eq ptr %9, null
  br i1 %.not.i.i, label %dissect_mswsp_smb.exit, label %10

10:                                               ; preds = %4
  %11 = getelementptr inbounds nuw i8, ptr %9, i64 40
  %12 = load i32, ptr %11, align 8
  switch i32 %12, label %dissect_mswsp_smb.exit [
    i32 3, label %13
    i32 9, label %17
  ]

13:                                               ; preds = %10
  %14 = getelementptr inbounds nuw i8, ptr %9, i64 32
  %15 = load ptr, ptr %14, align 8
  %16 = icmp eq ptr %15, null
  br i1 %16, label %dissect_mswsp_smb.exit, label %19

17:                                               ; preds = %10
  %18 = getelementptr inbounds nuw i8, ptr %9, i64 46
  br label %21

19:                                               ; preds = %13
  %20 = getelementptr inbounds nuw i8, ptr %15, i64 12
  br label %21

21:                                               ; preds = %19, %17
  %.021.shrunk.in.i.i = phi ptr [ %18, %17 ], [ %20, %19 ]
  %.021.shrunk.i.i = load i16, ptr %.021.shrunk.in.i.i, align 2
  %.not28.i.i = icmp eq i16 %.021.shrunk.i.i, 0
  br i1 %.not28.i.i, label %dissect_mswsp_smb.exit, label %22

22:                                               ; preds = %21
  %23 = getelementptr inbounds nuw i8, ptr %3, i64 48
  %24 = load ptr, ptr %23, align 8
  %25 = getelementptr inbounds nuw i8, ptr %24, i64 48
  %.02241.i.i = load ptr, ptr %25, align 8
  %.not2942.i.i = icmp eq ptr %.02241.i.i, null
  br i1 %.not2942.i.i, label %dissect_mswsp_smb.exit, label %.lr.ph.i.i

.lr.ph.i.i:                                       ; preds = %22
  %26 = getelementptr inbounds nuw i8, ptr %3, i64 4
  %27 = load i32, ptr %26, align 4
  br label %28

28:                                               ; preds = %37, %.lr.ph.i.i
  %.02243.i.i = phi ptr [ %.02241.i.i, %.lr.ph.i.i ], [ %.022.i.i, %37 ]
  %29 = load ptr, ptr %.02243.i.i, align 8
  %30 = load i16, ptr %29, align 8
  %31 = zext i16 %30 to i32
  %32 = icmp eq i32 %27, %31
  br i1 %32, label %33, label %37

33:                                               ; preds = %28
  %34 = getelementptr inbounds nuw i8, ptr %29, i64 2
  %35 = load i16, ptr %34, align 2
  %36 = icmp eq i16 %35, %.021.shrunk.i.i
  br i1 %36, label %find_fid_info.exit.i, label %37

37:                                               ; preds = %33, %28
  %38 = getelementptr inbounds nuw i8, ptr %.02243.i.i, i64 8
  %.022.i.i = load ptr, ptr %38, align 8
  %.not29.i.i = icmp eq ptr %.022.i.i, null
  br i1 %.not29.i.i, label %dissect_mswsp_smb.exit, label %28, !llvm.loop !10

find_fid_info.exit.i:                             ; preds = %33
  %.not.i = icmp eq ptr %29, null
  br i1 %.not.i, label %dissect_mswsp_smb.exit, label %39

39:                                               ; preds = %find_fid_info.exit.i
  %40 = getelementptr inbounds nuw i8, ptr %29, i64 32
  %41 = load ptr, ptr %40, align 8
  %.not16.i = icmp eq ptr %41, null
  br i1 %.not16.i, label %dissect_mswsp_smb.exit, label %42

42:                                               ; preds = %39
  %43 = load ptr, ptr %41, align 8
  %.not17.i = icmp eq ptr %43, null
  br i1 %.not17.i, label %dissect_mswsp_smb.exit, label %44

44:                                               ; preds = %42
  %45 = tail call i32 @g_ascii_strcasecmp(ptr noundef nonnull %43, ptr noundef nonnull @.str.1138)
  %.not18.i = icmp eq i32 %45, 0
  br i1 %.not18.i, label %46, label %dissect_mswsp_smb.exit

46:                                               ; preds = %44
  %47 = tail call ptr @wmem_file_scope()
  %48 = load i32, ptr @proto_mswsp, align 4
  tail call void @p_add_proto_data(ptr noundef %47, ptr noundef %1, i32 noundef %48, i32 noundef 0, ptr noundef nonnull @SMB1)
  %49 = tail call fastcc i32 @dissect_mswsp(ptr noundef %0, ptr noundef %1, ptr noundef %2, i1 noundef zeroext %7, ptr noundef readonly %3)
  %50 = icmp sgt i32 %49, 0
  br label %dissect_mswsp_smb.exit

dissect_mswsp_smb.exit:                           ; preds = %37, %4, %10, %13, %21, %22, %find_fid_info.exit.i, %39, %42, %44, %46
  %.0.i = phi i1 [ %50, %46 ], [ false, %42 ], [ false, %39 ], [ false, %find_fid_info.exit.i ], [ false, %44 ], [ false, %21 ], [ false, %4 ], [ false, %22 ], [ false, %13 ], [ false, %10 ], [ false, %37 ]
  ret i1 %.0.i
}